target datalayout = "e-m:e-p270:32:32-p271:32:32-p272:64:64-i64:64-i128:128-f80:128-n8:16:32:64-S128"
target triple = "x86_64-pc-linux-gnu"

%struct.AVFilterContext = type { ptr, ptr, ptr, ptr, ptr, i32, ptr, ptr, i32, ptr, ptr, i32, i32, ptr, ptr, ptr, ptr, i32, ptr, i32, i32 }
%struct.CropContext = type { ptr, i32, i32, i32, i32, %struct.AVRational, i32, i32, [4 x i32], i32, i32, ptr, ptr, ptr, ptr, ptr, ptr, [17 x double] }
%struct.AVRational = type { i32, i32 }

; Function Attrs: cold nounwind optsize uwtable
define internal void @uninit(ptr noundef %0) #0 {
  %2 = alloca ptr, align 8
  %3 = alloca ptr, align 8
  store ptr %0, ptr %2, align 8, !tbaa !4
  call void @llvm.lifetime.start.p0(i64 8, ptr %3) #9
  %4 = load ptr, ptr %2, align 8, !tbaa !4
  %5 = getelementptr inbounds nuw %struct.AVFilterContext, ptr %4, i32 0, i32 9
  %6 = load ptr, ptr %5, align 8, !tbaa !9
  store ptr %6, ptr %3, align 8, !tbaa !22
  %7 = load ptr, ptr %3, align 8, !tbaa !22
  %8 = getelementptr inbounds nuw %struct.CropContext, ptr %7, i32 0, i32 15
  %9 = load ptr, ptr %8, align 8, !tbaa !24
  call void @av_expr_free(ptr noundef %9)
  %10 = load ptr, ptr %3, align 8, !tbaa !22
  %11 = getelementptr inbounds nuw %struct.CropContext, ptr %10, i32 0, i32 15
  store ptr null, ptr %11, align 8, !tbaa !24
  %12 = load ptr, ptr %3, align 8, !tbaa !22
  %13 = getelementptr inbounds nuw %struct.CropContext, ptr %12, i32 0, i32 16
  %14 = load ptr, ptr %13, align 8, !tbaa !28
  call void @av_expr_free(ptr noundef %14)
  %15 = load ptr, ptr %3, align 8, !tbaa !22
  %16 = getelementptr inbounds nuw %struct.CropContext, ptr %15, i32 0, i32 16
  store ptr null, ptr %16, align 8, !tbaa !28
  call void @llvm.lifetime.end.p0(i64 8, ptr %3) #9
  ret void
}