; Function Attrs: cold nounwind optsize uwtable
define internal void @uninit(ptr noundef readonly captures(none) %0) #0 {
  %2 = getelementptr inbounds nuw i8, ptr %0, i64 72
  %3 = load ptr, ptr %2, align 8, !tbaa !4
  %4 = getelementptr inbounds nuw i8, ptr %3, i64 96
  %5 = load ptr, ptr %4, align 8, !tbaa !20
  tail call void @av_expr_free(ptr noundef %5) #8
  store ptr null, ptr %4, align 8, !tbaa !20
  %6 = getelementptr inbounds nuw i8, ptr %3, i64 104
  %7 = load ptr, ptr %6, align 8, !tbaa !24
  tail call void @av_expr_free(ptr noundef %7) #8
  store ptr null, ptr %6, align 8, !tbaa !24
  ret void
}